; Function Attrs: nounwind uwtable
define void @ossl_quic_set_connect_state(ptr noundef %0) local_unnamed_addr #0 {
  %2 = alloca %struct.qctx_st, align 8
  call void @llvm.lifetime.start.p0(i64 56, ptr nonnull %2) #12
  %3 = call fastcc range(i32 0, 2) i32 @expect_quic_as(ptr noundef %0, ptr noundef nonnull %2, i32 noundef 3)
  %.not = icmp eq i32 %3, 0
  br i1 %.not, label %16, label %4

4:                                                ; preds = %1
  %5 = getelementptr inbounds nuw i8, ptr %2, i64 24
  %6 = load ptr, ptr %5, align 8, !tbaa !134
  %7 = getelementptr inbounds nuw i8, ptr %6, i64 336
  %8 = load i16, ptr %7, align 8
  %9 = and i16 %8, 1
  %10 = icmp ne i16 %9, 0
  %11 = getelementptr inbounds nuw i8, ptr %2, i64 40
  %12 = load i32, ptr %11, align 8
  %13 = icmp ne i32 %12, 0
  %or.cond = select i1 %10, i1 true, i1 %13
  br i1 %or.cond, label %16, label %14

14:                                               ; preds = %4
  %15 = and i16 %8, -6
  store i16 %15, ptr %7, align 8
  br label %16

16:                                               ; preds = %4, %1, %14
  call void @llvm.lifetime.end.p0(i64 56, ptr nonnull %2) #12
  ret void
}